target datalayout = "e-m:e-p270:32:32-p271:32:32-p272:64:64-i64:64-i128:128-f80:128-n8:16:32:64-S128"
target triple = "x86_64-pc-linux-gnu"

%struct.RBasic = type { i64, i64 }
%struct.RArray = type { %struct.RBasic, %union.anon }
%union.anon = type { %struct.anon }
%struct.anon = type { i64, %union.anon.0, ptr }
%union.anon.0 = type { i64 }

@rb_cArray = dso_local global i64 0, align 8
@.str = private unnamed_addr constant [6 x i8] c"Array\00", align 1

; Function Attrs: inlinehint nounwind sspstrong willreturn memory(read) uwtable
define internal i64 @RB_FL_TEST_RAW(i64 noundef %0, i64 noundef %1) #2 {
  %3 = alloca i64, align 8
  %4 = alloca i64, align 8
  store i64 %0, ptr %3, align 8, !tbaa !7
  store i64 %1, ptr %4, align 8, !tbaa !7
  %5 = load i64, ptr %3, align 8, !tbaa !7
  %6 = inttoptr i64 %5 to ptr
  %7 = getelementptr inbounds nuw %struct.RBasic, ptr %6, i32 0, i32 0
  %8 = load i64, ptr %7, align 8, !tbaa !11
  %9 = load i64, ptr %4, align 8, !tbaa !7
  %10 = and i64 %8, %9
  ret i64 %10
}

; Function Attrs: inlinehint nounwind sspstrong willreturn memory(read) uwtable
define internal i64 @RARRAY_EMBED_LEN(i64 noundef %0) #2 {
  %2 = alloca i64, align 8
  %3 = alloca i64, align 8
  store i64 %0, ptr %2, align 8, !tbaa !7
  call void @llvm.lifetime.start.p0(i64 8, ptr %3) #27
  %4 = load i64, ptr %2, align 8, !tbaa !7
  %5 = inttoptr i64 %4 to ptr
  %6 = getelementptr inbounds nuw %struct.RBasic, ptr %5, i32 0, i32 0
  %7 = load i64, ptr %6, align 8, !tbaa !11
  store i64 %7, ptr %3, align 8, !tbaa !7
  %8 = load i64, ptr %3, align 8, !tbaa !7
  %9 = and i64 %8, 4161536
  store i64 %9, ptr %3, align 8, !tbaa !7
  %10 = load i64, ptr %3, align 8, !tbaa !7
  %11 = lshr i64 %10, 15
  store i64 %11, ptr %3, align 8, !tbaa !7
  %12 = load i64, ptr %3, align 8, !tbaa !7
  call void @llvm.lifetime.end.p0(i64 8, ptr %3) #27
  ret i64 %12
}

; Function Attrs: inlinehint nounwind sspstrong willreturn memory(read) uwtable
define internal zeroext i1 @RB_FL_ANY_RAW(i64 noundef %0, i64 noundef %1) #2 {
  %3 = alloca i64, align 8
  %4 = alloca i64, align 8
  store i64 %0, ptr %3, align 8, !tbaa !7
  store i64 %1, ptr %4, align 8, !tbaa !7
  %5 = load i64, ptr %3, align 8, !tbaa !7
  %6 = load i64, ptr %4, align 8, !tbaa !7
  %7 = call i64 @RB_FL_TEST_RAW(i64 noundef %5, i64 noundef %6) #26
  %8 = icmp ne i64 %7, 0
  ret i1 %8
}

; Function Attrs: inlinehint nounwind sspstrong uwtable
define internal zeroext i1 @ARY_EMBED_P(i64 noundef %0) #1 {
  %2 = alloca i64, align 8
  store i64 %0, ptr %2, align 8, !tbaa !7
  %3 = load i64, ptr %2, align 8, !tbaa !7
  %4 = call i64 @RB_FL_TEST_RAW(i64 noundef %3, i64 noundef 8192) #26
  %5 = icmp ne i64 %4, 0
  ret i1 %5
}

; Function Attrs: nounwind sspstrong uwtable
define internal void @ary_memcpy(i64 noundef %0, i64 noundef %1, i64 noundef %2, ptr noundef %3) #0 {
  %5 = alloca i64, align 8
  %6 = alloca i64, align 8
  %7 = alloca i64, align 8
  %8 = alloca ptr, align 8
  store i64 %0, ptr %5, align 8, !tbaa !7
  store i64 %1, ptr %6, align 8, !tbaa !7
  store i64 %2, ptr %7, align 8, !tbaa !7
  store ptr %3, ptr %8, align 8, !tbaa !14
  %9 = load i64, ptr %5, align 8, !tbaa !7
  %10 = load i64, ptr %6, align 8, !tbaa !7
  %11 = load i64, ptr %7, align 8, !tbaa !7
  %12 = load ptr, ptr %8, align 8, !tbaa !14
  %13 = load i64, ptr %5, align 8, !tbaa !7
  call void @ary_memcpy0(i64 noundef %9, i64 noundef %10, i64 noundef %11, ptr noundef %12, i64 noundef %13)
  ret void
}

; Function Attrs: inlinehint nounwind sspstrong willreturn memory(read) uwtable
define internal ptr @rb_array_const_ptr(i64 noundef %0) #2 {
  %2 = alloca ptr, align 8
  %3 = alloca i64, align 8
  store i64 %0, ptr %3, align 8, !tbaa !7
  %4 = load i64, ptr %3, align 8, !tbaa !7
  %5 = call zeroext i1 @RB_FL_ANY_RAW(i64 noundef %4, i64 noundef 8192) #26
  br i1 %5, label %6, label %11

6:                                                ; preds = %1
  %7 = load i64, ptr %3, align 8, !tbaa !7
  %8 = inttoptr i64 %7 to ptr
  %9 = getelementptr inbounds nuw %struct.RArray, ptr %8, i32 0, i32 1
  %10 = getelementptr inbounds [1 x i64], ptr %9, i64 0, i64 0
  store ptr %10, ptr %2, align 8
  br label %17

11:                                               ; preds = %1
  %12 = load i64, ptr %3, align 8, !tbaa !7
  %13 = inttoptr i64 %12 to ptr
  %14 = getelementptr inbounds nuw %struct.RArray, ptr %13, i32 0, i32 1
  %15 = getelementptr inbounds nuw %struct.anon, ptr %14, i32 0, i32 2
  %16 = load ptr, ptr %15, align 8, !tbaa !13
  store ptr %16, ptr %2, align 8
  br label %17

17:                                               ; preds = %11, %6
  %18 = load ptr, ptr %2, align 8
  ret ptr %18
}

; Function Attrs: nounwind sspstrong uwtable
define dso_local i64 @rb_ary_new_capa(i64 noundef %0) #0 {
  %2 = alloca i64, align 8
  store i64 %0, ptr %2, align 8, !tbaa !7
  %3 = load i64, ptr @rb_cArray, align 8, !tbaa !7
  %4 = load i64, ptr %2, align 8, !tbaa !7
  %5 = call i64 @ary_new(i64 noundef %3, i64 noundef %4)
  ret i64 %5
}

; Function Attrs: inlinehint nounwind sspstrong willreturn memory(read) uwtable
define internal i64 @rb_array_len(i64 noundef %0) #2 {
  %2 = alloca i64, align 8
  %3 = alloca i64, align 8
  store i64 %0, ptr %3, align 8, !tbaa !7
  %4 = load i64, ptr %3, align 8, !tbaa !7
  %5 = call zeroext i1 @RB_FL_ANY_RAW(i64 noundef %4, i64 noundef 8192) #26
  br i1 %5, label %6, label %9

6:                                                ; preds = %1
  %7 = load i64, ptr %3, align 8, !tbaa !7
  %8 = call i64 @RARRAY_EMBED_LEN(i64 noundef %7) #26
  store i64 %8, ptr %2, align 8
  br label %15

9:                                                ; preds = %1
  %10 = load i64, ptr %3, align 8, !tbaa !7
  %11 = inttoptr i64 %10 to ptr
  %12 = getelementptr inbounds nuw %struct.RArray, ptr %11, i32 0, i32 1
  %13 = getelementptr inbounds nuw %struct.anon, ptr %12, i32 0, i32 0
  %14 = load i64, ptr %13, align 8, !tbaa !13
  store i64 %14, ptr %2, align 8
  br label %15

15:                                               ; preds = %9, %6
  %16 = load i64, ptr %2, align 8
  ret i64 %16
}

; Function Attrs: nounwind sspstrong uwtable
define hidden i64 @rb_to_array_type(i64 noundef %0) #0 {
  %2 = alloca i64, align 8
  store i64 %0, ptr %2, align 8, !tbaa !7
  %3 = load i64, ptr %2, align 8, !tbaa !7
  %4 = call i64 @rb_convert_type_with_id(i64 noundef %3, i32 noundef 7, ptr noundef @.str, i64 noundef 3249)
  ret i64 %4
}

; Function Attrs: nounwind sspstrong uwtable
define dso_local i64 @rb_ary_plus(i64 noundef %0, i64 noundef %1) #0 {
  %3 = alloca i64, align 8
  %4 = alloca i64, align 8
  %5 = alloca i64, align 8
  %6 = alloca i64, align 8
  %7 = alloca i64, align 8
  %8 = alloca i64, align 8
  %9 = alloca i64, align 8
  store i64 %0, ptr %3, align 8, !tbaa !7
  store i64 %1, ptr %4, align 8, !tbaa !7
  call void @llvm.lifetime.start.p0(i64 8, ptr %5) #27
  call void @llvm.lifetime.start.p0(i64 8, ptr %6) #27
  call void @llvm.lifetime.start.p0(i64 8, ptr %7) #27
  call void @llvm.lifetime.start.p0(i64 8, ptr %8) #27
  %10 = load i64, ptr %4, align 8, !tbaa !7
  %11 = call i64 @rb_to_array_type(i64 noundef %10)
  store i64 %11, ptr %4, align 8, !tbaa !7
  %12 = load i64, ptr %3, align 8, !tbaa !7
  %13 = call i64 @rb_array_len(i64 noundef %12) #26
  store i64 %13, ptr %7, align 8, !tbaa !7
  %14 = load i64, ptr %4, align 8, !tbaa !7
  %15 = call i64 @rb_array_len(i64 noundef %14) #26
  store i64 %15, ptr %8, align 8, !tbaa !7
  %16 = load i64, ptr %7, align 8, !tbaa !7
  %17 = load i64, ptr %8, align 8, !tbaa !7
  %18 = add i64 %16, %17
  store i64 %18, ptr %6, align 8, !tbaa !7
  %19 = load i64, ptr %6, align 8, !tbaa !7
  %20 = call i64 @rb_ary_new_capa(i64 noundef %19)
  store i64 %20, ptr %5, align 8, !tbaa !7
  %21 = load i64, ptr %5, align 8, !tbaa !7
  %22 = load i64, ptr %7, align 8, !tbaa !7
  %23 = load i64, ptr %3, align 8, !tbaa !7
  %24 = call ptr @rb_array_const_ptr(i64 noundef %23) #26
  call void @ary_memcpy(i64 noundef %21, i64 noundef 0, i64 noundef %22, ptr noundef %24)
  %25 = load i64, ptr %5, align 8, !tbaa !7
  %26 = load i64, ptr %7, align 8, !tbaa !7
  %27 = load i64, ptr %8, align 8, !tbaa !7
  %28 = load i64, ptr %4, align 8, !tbaa !7
  %29 = call ptr @rb_array_const_ptr(i64 noundef %28) #26
  call void @ary_memcpy(i64 noundef %25, i64 noundef %26, i64 noundef %27, ptr noundef %29)
  br label %30

30:                                               ; preds = %2
  %31 = load i64, ptr %5, align 8, !tbaa !7
  %32 = call zeroext i1 @ARY_EMBED_P(i64 noundef %31)
  br i1 %32, label %33, label %50

33:                                               ; preds = %30
  br label %34

34:                                               ; preds = %33
  call void @llvm.lifetime.start.p0(i64 8, ptr %9) #27
  %35 = load i64, ptr %6, align 8, !tbaa !7
  store i64 %35, ptr %9, align 8, !tbaa !7
  %36 = load i64, ptr %5, align 8, !tbaa !7
  %37 = inttoptr i64 %36 to ptr
  %38 = getelementptr inbounds nuw %struct.RBasic, ptr %37, i32 0, i32 0
  %39 = load i64, ptr %38, align 8, !tbaa !11
  %40 = and i64 %39, -4161537
  store i64 %40, ptr %38, align 8, !tbaa !11
  %41 = load i64, ptr %9, align 8, !tbaa !7
  %42 = shl i64 %41, 15
  %43 = load i64, ptr %5, align 8, !tbaa !7
  %44 = inttoptr i64 %43 to ptr
  %45 = getelementptr inbounds nuw %struct.RBasic, ptr %44, i32 0, i32 0
  %46 = load i64, ptr %45, align 8, !tbaa !11
  %47 = or i64 %46, %42
  store i64 %47, ptr %45, align 8, !tbaa !11
  call void @llvm.lifetime.end.p0(i64 8, ptr %9) #27
  br label %48

48:                                               ; preds = %34
  br label %49

49:                                               ; preds = %48
  br label %59

50:                                               ; preds = %30
  br label %51

51:                                               ; preds = %50
  %52 = load i64, ptr %6, align 8, !tbaa !7
  %53 = load i64, ptr %5, align 8, !tbaa !7
  %54 = inttoptr i64 %53 to ptr
  %55 = getelementptr inbounds nuw %struct.RArray, ptr %54, i32 0, i32 1
  %56 = getelementptr inbounds nuw %struct.anon, ptr %55, i32 0, i32 0
  store i64 %52, ptr %56, align 8, !tbaa !13
  br label %57

57:                                               ; preds = %51
  br label %58

58:                                               ; preds = %57
  br label %59

59:                                               ; preds = %58, %49
  br label %60

60:                                               ; preds = %59
  br label %61

61:                                               ; preds = %60
  %62 = load i64, ptr %5, align 8, !tbaa !7
  call void @llvm.lifetime.end.p0(i64 8, ptr %8) #27
  call void @llvm.lifetime.end.p0(i64 8, ptr %7) #27
  call void @llvm.lifetime.end.p0(i64 8, ptr %6) #27
  call void @llvm.lifetime.end.p0(i64 8, ptr %5) #27
  ret i64 %62
}