; Function Attrs: nounwind sspstrong uwtable
define dso_local i64 @rb_ary_plus(i64 noundef %0, i64 noundef %1) #4 {
  %3 = tail call i64 @rb_convert_type_with_id(i64 noundef %1, i32 noundef 7, ptr noundef nonnull @.str, i64 noundef 3249) #24
  %4 = inttoptr i64 %0 to ptr
  %5 = load i64, ptr %4, align 8, !tbaa !7
  %6 = and i64 %5, 8192
  %.not.i = icmp eq i64 %6, 0
  br i1 %.not.i, label %10, label %7

7:                                                ; preds = %2
  %8 = lshr i64 %5, 15
  %9 = and i64 %8, 127
  br label %rb_array_len.exit

10:                                               ; preds = %2
  %11 = getelementptr inbounds nuw i8, ptr %4, i64 16
  %12 = load i64, ptr %11, align 8, !tbaa !12
  br label %rb_array_len.exit

rb_array_len.exit:                                ; preds = %7, %10
  %.0.i = phi i64 [ %9, %7 ], [ %12, %10 ]
  %13 = inttoptr i64 %3 to ptr
  %14 = load i64, ptr %13, align 8, !tbaa !7
  %15 = and i64 %14, 8192
  %.not.i21 = icmp eq i64 %15, 0
  br i1 %.not.i21, label %19, label %16

16:                                               ; preds = %rb_array_len.exit
  %17 = lshr i64 %14, 15
  %18 = and i64 %17, 127
  br label %rb_array_len.exit23

19:                                               ; preds = %rb_array_len.exit
  %20 = getelementptr inbounds nuw i8, ptr %13, i64 16
  %21 = load i64, ptr %20, align 8, !tbaa !12
  br label %rb_array_len.exit23

rb_array_len.exit23:                              ; preds = %16, %19
  %.0.i22 = phi i64 [ %18, %16 ], [ %21, %19 ]
  %22 = add i64 %.0.i22, %.0.i
  %23 = load i64, ptr @rb_cArray, align 8, !tbaa !13
  %24 = tail call fastcc i64 @ary_new(i64 noundef %23, i64 noundef %22)
  %25 = load i64, ptr %4, align 8, !tbaa !7
  %26 = and i64 %25, 8192
  %.not.i24 = icmp eq i64 %26, 0
  br i1 %.not.i24, label %29, label %27

27:                                               ; preds = %rb_array_len.exit23
  %28 = getelementptr inbounds nuw i8, ptr %4, i64 16
  br label %rb_array_const_ptr.exit

29:                                               ; preds = %rb_array_len.exit23
  %30 = getelementptr inbounds nuw i8, ptr %4, i64 32
  %31 = load ptr, ptr %30, align 8, !tbaa !12
  br label %rb_array_const_ptr.exit

rb_array_const_ptr.exit:                          ; preds = %27, %29
  %.0.i25 = phi ptr [ %28, %27 ], [ %31, %29 ]
  tail call fastcc void @ary_memcpy0(i64 noundef %24, i64 noundef 0, i64 noundef %.0.i, ptr noundef readonly %.0.i25, i64 noundef %24)
  %32 = load i64, ptr %13, align 8, !tbaa !7
  %33 = and i64 %32, 8192
  %.not.i26 = icmp eq i64 %33, 0
  br i1 %.not.i26, label %36, label %34

34:                                               ; preds = %rb_array_const_ptr.exit
  %35 = getelementptr inbounds nuw i8, ptr %13, i64 16
  br label %rb_array_const_ptr.exit28

36:                                               ; preds = %rb_array_const_ptr.exit
  %37 = getelementptr inbounds nuw i8, ptr %13, i64 32
  %38 = load ptr, ptr %37, align 8, !tbaa !12
  br label %rb_array_const_ptr.exit28

rb_array_const_ptr.exit28:                        ; preds = %34, %36
  %.0.i27 = phi ptr [ %35, %34 ], [ %38, %36 ]
  tail call fastcc void @ary_memcpy0(i64 noundef %24, i64 noundef %.0.i, i64 noundef %.0.i22, ptr noundef readonly %.0.i27, i64 noundef %24)
  %39 = inttoptr i64 %24 to ptr
  %40 = load i64, ptr %39, align 8, !tbaa !7
  %41 = and i64 %40, 8192
  %.not = icmp eq i64 %41, 0
  br i1 %.not, label %46, label %42

42:                                               ; preds = %rb_array_const_ptr.exit28
  %43 = and i64 %40, -4161537
  %44 = shl i64 %22, 15
  %45 = or i64 %43, %44
  store i64 %45, ptr %39, align 8, !tbaa !7
  br label %48

46:                                               ; preds = %rb_array_const_ptr.exit28
  %47 = getelementptr inbounds nuw i8, ptr %39, i64 16
  store i64 %22, ptr %47, align 8, !tbaa !12
  br label %48

48:                                               ; preds = %46, %42
  ret i64 %24
}